


ARM Macro Assembler    Page 1 


    1 00000000         ;/*!
    2 00000000         ;    \file  startup_gd32f1x0.s
    3 00000000         ;    \brief start up file
    4 00000000         ;*/
    5 00000000         
    6 00000000         ;/*
    7 00000000         ;    Copyright (C) 2017 GigaDevice
    8 00000000         
    9 00000000         ;    2014-12-26, V1.0.0, firmware for GD32F1x0(x=3,5)
   10 00000000         ;    2016-01-15, V2.0.0, firmware for GD32F1x0(x=3,5,7,9
                       )
   11 00000000         ;    2016-04-30, V3.0.0, firmware update for GD32F1x0(x=
                       3,5,7,9)
   12 00000000         ;    2017-06-19, V3.1.0, firmware update for GD32F1x0(x=
                       3,5,7,9)
   13 00000000         ;*/
   14 00000000         
   15 00000000         ; <h> Stack Configuration
   16 00000000         ;   <o> Stack Size (in Bytes) <0x0-0xFFFFFFFF:8>
   17 00000000         ; </h>
   18 00000000         
   19 00000000 00000400 
                       Stack_Size
                               EQU              0x00000400
   20 00000000         
   21 00000000                 AREA             STACK, NOINIT, READWRITE, ALIGN
=3
   22 00000000         Stack_Mem
                               SPACE            Stack_Size
   23 00000400         __initial_sp
   24 00000400         
   25 00000400         
   26 00000400         ; <h> Heap Configuration
   27 00000400         ;   <o>  Heap Size (in Bytes) <0x0-0xFFFFFFFF:8>
   28 00000400         ; </h>
   29 00000400         
   30 00000400 00000400 
                       Heap_Size
                               EQU              0x00000400
   31 00000400         
   32 00000400                 AREA             HEAP, NOINIT, READWRITE, ALIGN=
3
   33 00000000         __heap_base
   34 00000000         Heap_Mem
                               SPACE            Heap_Size
   35 00000400         __heap_limit
   36 00000400         
   37 00000400                 PRESERVE8
   38 00000400                 THUMB
   39 00000400         
   40 00000400         ;               /* reset Vector Mapped to at Address 0 *
                       /
   41 00000400                 AREA             RESET, DATA, READONLY
   42 00000000                 EXPORT           __Vectors
   43 00000000                 EXPORT           __Vectors_End
   44 00000000                 EXPORT           __Vectors_Size
   45 00000000         
   46 00000000 00000000 
                       __Vectors



ARM Macro Assembler    Page 2 


                               DCD              __initial_sp ; Top of Stack
   47 00000004 00000000        DCD              Reset_Handler ; Reset Handler
   48 00000008 00000000        DCD              NMI_Handler ; NMI Handler
   49 0000000C 00000000        DCD              HardFault_Handler ; Hard Fault 
                                                            Handler
   50 00000010 00000000        DCD              MemManage_Handler 
                                                            ; MPU Fault Handler
                                                            
   51 00000014 00000000        DCD              BusFault_Handler 
                                                            ; Bus Fault Handler
                                                            
   52 00000018 00000000        DCD              UsageFault_Handler ; Usage Faul
                                                            t Handler
   53 0000001C 00000000        DCD              0           ; Reserved
   54 00000020 00000000        DCD              0           ; Reserved
   55 00000024 00000000        DCD              0           ; Reserved
   56 00000028 00000000        DCD              0           ; Reserved
   57 0000002C 00000000        DCD              SVC_Handler ; SVCall Handler
   58 00000030 00000000        DCD              DebugMon_Handler ; Debug Monito
                                                            r Handler
   59 00000034 00000000        DCD              0           ; Reserved
   60 00000038 00000000        DCD              PendSV_Handler ; PendSV Handler
                                                            
   61 0000003C 00000000        DCD              SysTick_Handler 
                                                            ; SysTick Handler
   62 00000040         
   63 00000040         ;               /* external interrupts handler */
   64 00000040 00000000        DCD              WWDGT_IRQHandler ; 16:Window Wa
                                                            tchdog Timer
   65 00000044 00000000        DCD              LVD_IRQHandler ; 17:LVD through
                                                             EXTI Line detect
   66 00000048 00000000        DCD              RTC_IRQHandler ; 18:RTC through
                                                             EXTI Line
   67 0000004C 00000000        DCD              FMC_IRQHandler ; 19:FMC
   68 00000050 00000000        DCD              RCU_IRQHandler ; 20:RCU
   69 00000054 00000000        DCD              EXTI0_1_IRQHandler ; 21:EXTI Li
                                                            ne 0 and EXTI Line 
                                                            1
   70 00000058 00000000        DCD              EXTI2_3_IRQHandler ; 22:EXTI Li
                                                            ne 2 and EXTI Line 
                                                            3
   71 0000005C 00000000        DCD              EXTI4_15_IRQHandler ; 23:EXTI L
                                                            ine 4 to EXTI Line 
                                                            15
   72 00000060 00000000        DCD              TSI_IRQHandler ; 24:TSI
   73 00000064 00000000        DCD              DMA_Channel0_IRQHandler 
                                                            ; 25:DMA Channel 0 
                                                            
   74 00000068 00000000        DCD              DMA_Channel1_2_IRQHandler ; 26:
                                                            DMA Channel 1 and D
                                                            MA Channel 2
   75 0000006C 00000000        DCD              DMA_Channel3_4_IRQHandler ; 27:
                                                            DMA Channel 3 and D
                                                            MA Channel 4
   76 00000070 00000000        DCD              ADC_CMP_IRQHandler ; 28:ADC and
                                                             Comparator 0-1
   77 00000074 00000000        DCD              TIMER0_BRK_UP_TRG_COM_IRQHandle
r 
                                                            ; 29:TIMER0 Break,U



ARM Macro Assembler    Page 3 


                                                            pdate,Trigger and C
                                                            ommutation
   78 00000078 00000000        DCD              TIMER0_Channel_IRQHandler 
                                                            ; 30:TIMER0 Channel
                                                            
   79 0000007C 00000000        DCD              TIMER1_IRQHandler ; 31:TIMER1
   80 00000080 00000000        DCD              TIMER2_IRQHandler ; 32:TIMER2
   81 00000084 00000000        DCD              TIMER5_DAC_IRQHandler 
                                                            ; 33:TIMER5 and DAC
                                                            
   82 00000088 00000000        DCD              0           ; Reserved
   83 0000008C 00000000        DCD              TIMER13_IRQHandler ; 35:TIMER13
                                                            
   84 00000090 00000000        DCD              TIMER14_IRQHandler ; 36:TIMER14
                                                            
   85 00000094 00000000        DCD              TIMER15_IRQHandler ; 37:TIMER15
                                                            
   86 00000098 00000000        DCD              TIMER16_IRQHandler ; 38:TIMER16
                                                            
   87 0000009C 00000000        DCD              I2C0_EV_IRQHandler 
                                                            ; 39:I2C0 Event
   88 000000A0 00000000        DCD              I2C1_EV_IRQHandler 
                                                            ; 40:I2C1 Event
   89 000000A4 00000000        DCD              SPI0_IRQHandler ; 41:SPI0
   90 000000A8 00000000        DCD              SPI1_IRQHandler ; 42:SPI1
   91 000000AC 00000000        DCD              USART0_IRQHandler ; 43:USART0
   92 000000B0 00000000        DCD              USART1_IRQHandler ; 44:USART1
   93 000000B4 00000000        DCD              0           ; Reserved
   94 000000B8 00000000        DCD              CEC_IRQHandler ; 46:CEC
   95 000000BC 00000000        DCD              0           ; Reserved
   96 000000C0 00000000        DCD              I2C0_ER_IRQHandler 
                                                            ; 48:I2C0 Error
   97 000000C4 00000000        DCD              0           ; Reserved
   98 000000C8 00000000        DCD              I2C1_ER_IRQHandler 
                                                            ; 50:I2C1 Error
   99 000000CC 00000000        DCD              I2C2_EV_IRQHandler 
                                                            ; 51:I2C2 Event
  100 000000D0 00000000        DCD              I2C2_ER_IRQHandler 
                                                            ; 52:I2C2 Error
  101 000000D4 00000000        DCD              USBD_LP_IRQHandler ; 53:USBD LP
                                                            
  102 000000D8 00000000        DCD              USBD_HP_IRQHandler ; 54:USBD HP
                                                            
  103 000000DC 00000000        DCD              0           ; Reserved
  104 000000E0 00000000        DCD              0           ; Reserved
  105 000000E4 00000000        DCD              0           ; Reserved
  106 000000E8 00000000        DCD              USBDWakeUp_IRQHandler 
                                                            ; 58:USBD Wakeup
  107 000000EC 00000000        DCD              CAN0_TX_IRQHandler ; 59:CAN0 TX
                                                            
  108 000000F0 00000000        DCD              CAN0_RX0_IRQHandler 
                                                            ; 60:CAN0 RX0
  109 000000F4 00000000        DCD              CAN0_RX1_IRQHandler 
                                                            ; 61:CAN0 RX1
  110 000000F8 00000000        DCD              CAN0_SCE_IRQHandler 
                                                            ; 62:CAN0 SCE
  111 000000FC 00000000        DCD              SLCD_IRQHandler ; 63:SLCD
  112 00000100 00000000        DCD              DMA_Channel5_6_IRQHandler ; 64:
                                                            DMA Channel5 and Ch



ARM Macro Assembler    Page 4 


                                                            annel6 
  113 00000104 00000000        DCD              0           ; Reserved
  114 00000108 00000000        DCD              0           ; Reserved
  115 0000010C 00000000        DCD              SPI2_IRQHandler ; 67:SPI2
  116 00000110 00000000        DCD              0           ; Reserved
  117 00000114 00000000        DCD              0           ; Reserved
  118 00000118 00000000        DCD              0           ; Reserved
  119 0000011C 00000000        DCD              0           ; Reserved
  120 00000120 00000000        DCD              0           ; Reserved
  121 00000124 00000000        DCD              0           ; Reserved
  122 00000128 00000000        DCD              0           ; Reserved
  123 0000012C 00000000        DCD              0           ; Reserved
  124 00000130 00000000        DCD              0           ; Reserved
  125 00000134 00000000        DCD              0           ; Reserved
  126 00000138 00000000        DCD              0           ; Reserved
  127 0000013C 00000000        DCD              0           ; Reserved
  128 00000140 00000000        DCD              0           ; Reserved
  129 00000144 00000000        DCD              0           ; Reserved
  130 00000148 00000000        DCD              0           ; Reserved
  131 0000014C 00000000        DCD              0           ; Reserved
  132 00000150 00000000        DCD              0           ; Reserved
  133 00000154 00000000        DCD              0           ; Reserved
  134 00000158 00000000        DCD              CAN1_TX_IRQHandler ; 86:CAN1 TX
                                                            
  135 0000015C 00000000        DCD              CAN1_RX0_IRQHandler 
                                                            ; 87:CAN1 RX0
  136 00000160 00000000        DCD              CAN1_RX1_IRQHandler 
                                                            ; 88:CAN1 RX1
  137 00000164 00000000        DCD              CAN1_SCE_IRQHandler 
                                                            ; 89:CAN1 SCE
  138 00000168         __Vectors_End
  139 00000168         
  140 00000168 00000168 
                       __Vectors_Size
                               EQU              __Vectors_End - __Vectors
  141 00000168         
  142 00000168                 AREA             |.text|, CODE, READONLY
  143 00000000         
  144 00000000         ;/* reset Handler */
  145 00000000         Reset_Handler
                               PROC
  146 00000000                 EXPORT           Reset_Handler                  
   [WEAK]
  147 00000000                 IMPORT           SystemInit
  148 00000000                 IMPORT           __main
  149 00000000 4809            LDR              R0, =SystemInit
  150 00000002 4780            BLX              R0
  151 00000004 4809            LDR              R0, =__main
  152 00000006 4700            BX               R0
  153 00000008                 ENDP
  154 00000008         
  155 00000008         ;/* dummy Exception Handlers */
  156 00000008         NMI_Handler
                               PROC
  157 00000008                 EXPORT           NMI_Handler                    
   [WEAK]
  158 00000008 E7FE            B                .
  159 0000000A                 ENDP
  161 0000000A         HardFault_Handler



ARM Macro Assembler    Page 5 


                               PROC
  162 0000000A                 EXPORT           HardFault_Handler              
   [WEAK]
  163 0000000A E7FE            B                .
  164 0000000C                 ENDP
  166 0000000C         MemManage_Handler
                               PROC
  167 0000000C                 EXPORT           MemManage_Handler              
   [WEAK]
  168 0000000C E7FE            B                .
  169 0000000E                 ENDP
  171 0000000E         BusFault_Handler
                               PROC
  172 0000000E                 EXPORT           BusFault_Handler               
   [WEAK]
  173 0000000E E7FE            B                .
  174 00000010                 ENDP
  176 00000010         UsageFault_Handler
                               PROC
  177 00000010                 EXPORT           UsageFault_Handler             
   [WEAK]
  178 00000010 E7FE            B                .
  179 00000012                 ENDP
  180 00000012         SVC_Handler
                               PROC
  181 00000012                 EXPORT           SVC_Handler                    
   [WEAK]
  182 00000012 E7FE            B                .
  183 00000014                 ENDP
  185 00000014         DebugMon_Handler
                               PROC
  186 00000014                 EXPORT           DebugMon_Handler               
   [WEAK]
  187 00000014 E7FE            B                .
  188 00000016                 ENDP
  190 00000016         PendSV_Handler
                               PROC
  191 00000016                 EXPORT           PendSV_Handler                 
   [WEAK]
  192 00000016 E7FE            B                .
  193 00000018                 ENDP
  195 00000018         SysTick_Handler
                               PROC
  196 00000018                 EXPORT           SysTick_Handler                
   [WEAK]
  197 00000018 E7FE            B                .
  198 0000001A                 ENDP
  199 0000001A         
  200 0000001A         Default_Handler
                               PROC
  201 0000001A         ;               /* external interrupts handler */
  202 0000001A                 EXPORT           WWDGT_IRQHandler               
   [WEAK]
  203 0000001A                 EXPORT           LVD_IRQHandler                 
   [WEAK]
  204 0000001A                 EXPORT           RTC_IRQHandler                 
   [WEAK]
  205 0000001A                 EXPORT           FMC_IRQHandler                 
   [WEAK]



ARM Macro Assembler    Page 6 


  206 0000001A                 EXPORT           RCU_IRQHandler                 
   [WEAK]
  207 0000001A                 EXPORT           EXTI0_1_IRQHandler             
   [WEAK]
  208 0000001A                 EXPORT           EXTI2_3_IRQHandler             
   [WEAK]
  209 0000001A                 EXPORT           EXTI4_15_IRQHandler            
   [WEAK]
  210 0000001A                 EXPORT           TSI_IRQHandler                 
   [WEAK]
  211 0000001A                 EXPORT           DMA_Channel0_IRQHandler        
   [WEAK]
  212 0000001A                 EXPORT           DMA_Channel1_2_IRQHandler      
   [WEAK]
  213 0000001A                 EXPORT           DMA_Channel3_4_IRQHandler      
   [WEAK]
  214 0000001A                 EXPORT           ADC_CMP_IRQHandler             
   [WEAK]
  215 0000001A                 EXPORT           TIMER0_BRK_UP_TRG_COM_IRQHandle
r  [WEAK]
  216 0000001A                 EXPORT           TIMER0_Channel_IRQHandler      
   [WEAK]
  217 0000001A                 EXPORT           TIMER1_IRQHandler              
   [WEAK]
  218 0000001A                 EXPORT           TIMER2_IRQHandler              
   [WEAK]
  219 0000001A                 EXPORT           TIMER5_DAC_IRQHandler          
   [WEAK]
  220 0000001A                 EXPORT           TIMER13_IRQHandler             
   [WEAK]
  221 0000001A                 EXPORT           TIMER14_IRQHandler             
   [WEAK]
  222 0000001A                 EXPORT           TIMER15_IRQHandler             
   [WEAK]
  223 0000001A                 EXPORT           TIMER16_IRQHandler             
   [WEAK]
  224 0000001A                 EXPORT           I2C0_EV_IRQHandler             
   [WEAK]
  225 0000001A                 EXPORT           I2C1_EV_IRQHandler             
   [WEAK]
  226 0000001A                 EXPORT           SPI0_IRQHandler                
   [WEAK]
  227 0000001A                 EXPORT           SPI1_IRQHandler                
   [WEAK]
  228 0000001A                 EXPORT           USART0_IRQHandler              
   [WEAK]
  229 0000001A                 EXPORT           USART1_IRQHandler              
   [WEAK]
  230 0000001A                 EXPORT           CEC_IRQHandler                 
   [WEAK]
  231 0000001A                 EXPORT           I2C0_ER_IRQHandler             
   [WEAK]
  232 0000001A                 EXPORT           I2C1_ER_IRQHandler             
   [WEAK]
  233 0000001A                 EXPORT           I2C2_EV_IRQHandler             
   [WEAK]
  234 0000001A                 EXPORT           I2C2_ER_IRQHandler             
   [WEAK]
  235 0000001A                 EXPORT           USBD_LP_IRQHandler             



ARM Macro Assembler    Page 7 


   [WEAK]
  236 0000001A                 EXPORT           USBD_HP_IRQHandler             
   [WEAK]
  237 0000001A                 EXPORT           USBDWakeUp_IRQHandler          
   [WEAK]
  238 0000001A                 EXPORT           CAN0_TX_IRQHandler             
   [WEAK]
  239 0000001A                 EXPORT           CAN0_RX0_IRQHandler            
   [WEAK]
  240 0000001A                 EXPORT           CAN0_RX1_IRQHandler            
   [WEAK]
  241 0000001A                 EXPORT           CAN0_SCE_IRQHandler            
   [WEAK]
  242 0000001A                 EXPORT           SLCD_IRQHandler                
   [WEAK]
  243 0000001A                 EXPORT           DMA_Channel5_6_IRQHandler      
   [WEAK]
  244 0000001A                 EXPORT           SPI2_IRQHandler                
   [WEAK]
  245 0000001A                 EXPORT           CAN1_TX_IRQHandler             
   [WEAK]
  246 0000001A                 EXPORT           CAN1_RX0_IRQHandler            
   [WEAK]
  247 0000001A                 EXPORT           CAN1_RX1_IRQHandler            
   [WEAK]
  248 0000001A                 EXPORT           CAN1_SCE_IRQHandler            
   [WEAK]
  249 0000001A         
  250 0000001A         ;/* external interrupts handler */
  251 0000001A         WWDGT_IRQHandler
  252 0000001A         LVD_IRQHandler
  253 0000001A         RTC_IRQHandler
  254 0000001A         FMC_IRQHandler
  255 0000001A         RCU_IRQHandler
  256 0000001A         EXTI0_1_IRQHandler
  257 0000001A         EXTI2_3_IRQHandler
  258 0000001A         EXTI4_15_IRQHandler
  259 0000001A         TSI_IRQHandler
  260 0000001A         DMA_Channel0_IRQHandler
  261 0000001A         DMA_Channel1_2_IRQHandler
  262 0000001A         DMA_Channel3_4_IRQHandler
  263 0000001A         ADC_CMP_IRQHandler
  264 0000001A         TIMER0_BRK_UP_TRG_COM_IRQHandler
  265 0000001A         TIMER0_Channel_IRQHandler
  266 0000001A         TIMER1_IRQHandler
  267 0000001A         TIMER2_IRQHandler
  268 0000001A         TIMER5_DAC_IRQHandler
  269 0000001A         TIMER13_IRQHandler
  270 0000001A         TIMER14_IRQHandler
  271 0000001A         TIMER15_IRQHandler
  272 0000001A         TIMER16_IRQHandler
  273 0000001A         I2C0_EV_IRQHandler
  274 0000001A         I2C1_EV_IRQHandler
  275 0000001A         SPI0_IRQHandler
  276 0000001A         SPI1_IRQHandler
  277 0000001A         USART0_IRQHandler
  278 0000001A         USART1_IRQHandler
  279 0000001A         CEC_IRQHandler
  280 0000001A         I2C0_ER_IRQHandler



ARM Macro Assembler    Page 8 


  281 0000001A         I2C1_ER_IRQHandler
  282 0000001A         I2C2_EV_IRQHandler
  283 0000001A         I2C2_ER_IRQHandler
  284 0000001A         USBD_LP_IRQHandler
  285 0000001A         USBD_HP_IRQHandler
  286 0000001A         USBDWakeUp_IRQHandler
  287 0000001A         CAN0_TX_IRQHandler
  288 0000001A         CAN0_RX0_IRQHandler
  289 0000001A         CAN0_RX1_IRQHandler
  290 0000001A         CAN0_SCE_IRQHandler
  291 0000001A         SLCD_IRQHandler
  292 0000001A         DMA_Channel5_6_IRQHandler
  293 0000001A         SPI2_IRQHandler
  294 0000001A         CAN1_TX_IRQHandler
  295 0000001A         CAN1_RX0_IRQHandler
  296 0000001A         CAN1_RX1_IRQHandler
  297 0000001A         CAN1_SCE_IRQHandler
  298 0000001A E7FE            B                .
  299 0000001C                 ENDP
  300 0000001C         
  301 0000001C                 ALIGN
  302 0000001C         
  303 0000001C         ; user Initial Stack & Heap
  304 0000001C         
  305 0000001C                 IF               :DEF:__MICROLIB
  312 0000001C         
  313 0000001C                 IMPORT           __use_two_region_memory
  314 0000001C                 EXPORT           __user_initial_stackheap
  315 0000001C         
  316 0000001C         __user_initial_stackheap
                               PROC
  317 0000001C 4804            LDR              R0, =  Heap_Mem
  318 0000001E 4905            LDR              R1, =(Stack_Mem + Stack_Size)
  319 00000020 4A05            LDR              R2, = (Heap_Mem +  Heap_Size)
  320 00000022 4B06            LDR              R3, = Stack_Mem
  321 00000024 4770            BX               LR
  322 00000026                 ENDP
  323 00000026         
  324 00000026 00 00           ALIGN
  325 00000028         
  326 00000028                 ENDIF
  327 00000028         
  328 00000028                 END
              00000000 
              00000000 
              00000000 
              00000400 
              00000400 
              00000000 
Command Line: --debug --xref --diag_suppress=9931 --cpu=Cortex-M3 --apcs=interw
ork --depend=.\objects\startup_gd32f1x0.d -o.\objects\startup_gd32f1x0.o -I.\RT
E\_Target_1 -IC:\Keil_v5\ARM\PACK\ARM\CMSIS\5.3.0\CMSIS\Include -IC:\Keil_v5\AR
M\PACK\GigaDevice\GD32F1x0_DFP\3.1.0\Device\Firmware\Peripherals\inc -IC:\Keil_
v5\ARM\PACK\GigaDevice\GD32F1x0_DFP\3.1.0\Device\Include --predefine="__EVAL SE
TA 1" --predefine="__UVISION_VERSION SETA 525" --predefine="_RTE_ SETA 1" --pre
define="GD32F1x0 SETA 1" --predefine="GD32F130_150 SETA 1" --predefine="USE_STD
PERIPH_DRIVER SETA 1" --list=.\listings\startup_gd32f1x0.lst RTE\Device\GD32F13
0C8\startup_gd32f1x0.s



ARM Macro Assembler    Page 1 Alphabetic symbol ordering
Relocatable symbols

STACK 00000000

Symbol: STACK
   Definitions
      At line 21 in file RTE\Device\GD32F130C8\startup_gd32f1x0.s
   Uses
      None
Comment: STACK unused
Stack_Mem 00000000

Symbol: Stack_Mem
   Definitions
      At line 22 in file RTE\Device\GD32F130C8\startup_gd32f1x0.s
   Uses
      At line 318 in file RTE\Device\GD32F130C8\startup_gd32f1x0.s
      At line 320 in file RTE\Device\GD32F130C8\startup_gd32f1x0.s

__initial_sp 00000400

Symbol: __initial_sp
   Definitions
      At line 23 in file RTE\Device\GD32F130C8\startup_gd32f1x0.s
   Uses
      At line 46 in file RTE\Device\GD32F130C8\startup_gd32f1x0.s
Comment: __initial_sp used once
3 symbols



ARM Macro Assembler    Page 1 Alphabetic symbol ordering
Relocatable symbols

HEAP 00000000

Symbol: HEAP
   Definitions
      At line 32 in file RTE\Device\GD32F130C8\startup_gd32f1x0.s
   Uses
      None
Comment: HEAP unused
Heap_Mem 00000000

Symbol: Heap_Mem
   Definitions
      At line 34 in file RTE\Device\GD32F130C8\startup_gd32f1x0.s
   Uses
      At line 317 in file RTE\Device\GD32F130C8\startup_gd32f1x0.s
      At line 319 in file RTE\Device\GD32F130C8\startup_gd32f1x0.s

__heap_base 00000000

Symbol: __heap_base
   Definitions
      At line 33 in file RTE\Device\GD32F130C8\startup_gd32f1x0.s
   Uses
      None
Comment: __heap_base unused
__heap_limit 00000400

Symbol: __heap_limit
   Definitions
      At line 35 in file RTE\Device\GD32F130C8\startup_gd32f1x0.s
   Uses
      None
Comment: __heap_limit unused
4 symbols



ARM Macro Assembler    Page 1 Alphabetic symbol ordering
Relocatable symbols

RESET 00000000

Symbol: RESET
   Definitions
      At line 41 in file RTE\Device\GD32F130C8\startup_gd32f1x0.s
   Uses
      None
Comment: RESET unused
__Vectors 00000000

Symbol: __Vectors
   Definitions
      At line 46 in file RTE\Device\GD32F130C8\startup_gd32f1x0.s
   Uses
      At line 42 in file RTE\Device\GD32F130C8\startup_gd32f1x0.s
      At line 140 in file RTE\Device\GD32F130C8\startup_gd32f1x0.s

__Vectors_End 00000168

Symbol: __Vectors_End
   Definitions
      At line 138 in file RTE\Device\GD32F130C8\startup_gd32f1x0.s
   Uses
      At line 43 in file RTE\Device\GD32F130C8\startup_gd32f1x0.s
      At line 140 in file RTE\Device\GD32F130C8\startup_gd32f1x0.s

3 symbols



ARM Macro Assembler    Page 1 Alphabetic symbol ordering
Relocatable symbols

.text 00000000

Symbol: .text
   Definitions
      At line 142 in file RTE\Device\GD32F130C8\startup_gd32f1x0.s
   Uses
      None
Comment: .text unused
ADC_CMP_IRQHandler 0000001A

Symbol: ADC_CMP_IRQHandler
   Definitions
      At line 263 in file RTE\Device\GD32F130C8\startup_gd32f1x0.s
   Uses
      At line 76 in file RTE\Device\GD32F130C8\startup_gd32f1x0.s
      At line 214 in file RTE\Device\GD32F130C8\startup_gd32f1x0.s

BusFault_Handler 0000000E

Symbol: BusFault_Handler
   Definitions
      At line 171 in file RTE\Device\GD32F130C8\startup_gd32f1x0.s
   Uses
      At line 51 in file RTE\Device\GD32F130C8\startup_gd32f1x0.s
      At line 172 in file RTE\Device\GD32F130C8\startup_gd32f1x0.s

CAN0_RX0_IRQHandler 0000001A

Symbol: CAN0_RX0_IRQHandler
   Definitions
      At line 288 in file RTE\Device\GD32F130C8\startup_gd32f1x0.s
   Uses
      At line 108 in file RTE\Device\GD32F130C8\startup_gd32f1x0.s
      At line 239 in file RTE\Device\GD32F130C8\startup_gd32f1x0.s

CAN0_RX1_IRQHandler 0000001A

Symbol: CAN0_RX1_IRQHandler
   Definitions
      At line 289 in file RTE\Device\GD32F130C8\startup_gd32f1x0.s
   Uses
      At line 109 in file RTE\Device\GD32F130C8\startup_gd32f1x0.s
      At line 240 in file RTE\Device\GD32F130C8\startup_gd32f1x0.s

CAN0_SCE_IRQHandler 0000001A

Symbol: CAN0_SCE_IRQHandler
   Definitions
      At line 290 in file RTE\Device\GD32F130C8\startup_gd32f1x0.s
   Uses
      At line 110 in file RTE\Device\GD32F130C8\startup_gd32f1x0.s
      At line 241 in file RTE\Device\GD32F130C8\startup_gd32f1x0.s

CAN0_TX_IRQHandler 0000001A

Symbol: CAN0_TX_IRQHandler
   Definitions
      At line 287 in file RTE\Device\GD32F130C8\startup_gd32f1x0.s
   Uses



ARM Macro Assembler    Page 2 Alphabetic symbol ordering
Relocatable symbols

      At line 107 in file RTE\Device\GD32F130C8\startup_gd32f1x0.s
      At line 238 in file RTE\Device\GD32F130C8\startup_gd32f1x0.s

CAN1_RX0_IRQHandler 0000001A

Symbol: CAN1_RX0_IRQHandler
   Definitions
      At line 295 in file RTE\Device\GD32F130C8\startup_gd32f1x0.s
   Uses
      At line 135 in file RTE\Device\GD32F130C8\startup_gd32f1x0.s
      At line 246 in file RTE\Device\GD32F130C8\startup_gd32f1x0.s

CAN1_RX1_IRQHandler 0000001A

Symbol: CAN1_RX1_IRQHandler
   Definitions
      At line 296 in file RTE\Device\GD32F130C8\startup_gd32f1x0.s
   Uses
      At line 136 in file RTE\Device\GD32F130C8\startup_gd32f1x0.s
      At line 247 in file RTE\Device\GD32F130C8\startup_gd32f1x0.s

CAN1_SCE_IRQHandler 0000001A

Symbol: CAN1_SCE_IRQHandler
   Definitions
      At line 297 in file RTE\Device\GD32F130C8\startup_gd32f1x0.s
   Uses
      At line 137 in file RTE\Device\GD32F130C8\startup_gd32f1x0.s
      At line 248 in file RTE\Device\GD32F130C8\startup_gd32f1x0.s

CAN1_TX_IRQHandler 0000001A

Symbol: CAN1_TX_IRQHandler
   Definitions
      At line 294 in file RTE\Device\GD32F130C8\startup_gd32f1x0.s
   Uses
      At line 134 in file RTE\Device\GD32F130C8\startup_gd32f1x0.s
      At line 245 in file RTE\Device\GD32F130C8\startup_gd32f1x0.s

CEC_IRQHandler 0000001A

Symbol: CEC_IRQHandler
   Definitions
      At line 279 in file RTE\Device\GD32F130C8\startup_gd32f1x0.s
   Uses
      At line 94 in file RTE\Device\GD32F130C8\startup_gd32f1x0.s
      At line 230 in file RTE\Device\GD32F130C8\startup_gd32f1x0.s

DMA_Channel0_IRQHandler 0000001A

Symbol: DMA_Channel0_IRQHandler
   Definitions
      At line 260 in file RTE\Device\GD32F130C8\startup_gd32f1x0.s
   Uses
      At line 73 in file RTE\Device\GD32F130C8\startup_gd32f1x0.s
      At line 211 in file RTE\Device\GD32F130C8\startup_gd32f1x0.s

DMA_Channel1_2_IRQHandler 0000001A




ARM Macro Assembler    Page 3 Alphabetic symbol ordering
Relocatable symbols

Symbol: DMA_Channel1_2_IRQHandler
   Definitions
      At line 261 in file RTE\Device\GD32F130C8\startup_gd32f1x0.s
   Uses
      At line 74 in file RTE\Device\GD32F130C8\startup_gd32f1x0.s
      At line 212 in file RTE\Device\GD32F130C8\startup_gd32f1x0.s

DMA_Channel3_4_IRQHandler 0000001A

Symbol: DMA_Channel3_4_IRQHandler
   Definitions
      At line 262 in file RTE\Device\GD32F130C8\startup_gd32f1x0.s
   Uses
      At line 75 in file RTE\Device\GD32F130C8\startup_gd32f1x0.s
      At line 213 in file RTE\Device\GD32F130C8\startup_gd32f1x0.s

DMA_Channel5_6_IRQHandler 0000001A

Symbol: DMA_Channel5_6_IRQHandler
   Definitions
      At line 292 in file RTE\Device\GD32F130C8\startup_gd32f1x0.s
   Uses
      At line 112 in file RTE\Device\GD32F130C8\startup_gd32f1x0.s
      At line 243 in file RTE\Device\GD32F130C8\startup_gd32f1x0.s

DebugMon_Handler 00000014

Symbol: DebugMon_Handler
   Definitions
      At line 185 in file RTE\Device\GD32F130C8\startup_gd32f1x0.s
   Uses
      At line 58 in file RTE\Device\GD32F130C8\startup_gd32f1x0.s
      At line 186 in file RTE\Device\GD32F130C8\startup_gd32f1x0.s

Default_Handler 0000001A

Symbol: Default_Handler
   Definitions
      At line 200 in file RTE\Device\GD32F130C8\startup_gd32f1x0.s
   Uses
      None
Comment: Default_Handler unused
EXTI0_1_IRQHandler 0000001A

Symbol: EXTI0_1_IRQHandler
   Definitions
      At line 256 in file RTE\Device\GD32F130C8\startup_gd32f1x0.s
   Uses
      At line 69 in file RTE\Device\GD32F130C8\startup_gd32f1x0.s
      At line 207 in file RTE\Device\GD32F130C8\startup_gd32f1x0.s

EXTI2_3_IRQHandler 0000001A

Symbol: EXTI2_3_IRQHandler
   Definitions
      At line 257 in file RTE\Device\GD32F130C8\startup_gd32f1x0.s
   Uses
      At line 70 in file RTE\Device\GD32F130C8\startup_gd32f1x0.s
      At line 208 in file RTE\Device\GD32F130C8\startup_gd32f1x0.s



ARM Macro Assembler    Page 4 Alphabetic symbol ordering
Relocatable symbols


EXTI4_15_IRQHandler 0000001A

Symbol: EXTI4_15_IRQHandler
   Definitions
      At line 258 in file RTE\Device\GD32F130C8\startup_gd32f1x0.s
   Uses
      At line 71 in file RTE\Device\GD32F130C8\startup_gd32f1x0.s
      At line 209 in file RTE\Device\GD32F130C8\startup_gd32f1x0.s

FMC_IRQHandler 0000001A

Symbol: FMC_IRQHandler
   Definitions
      At line 254 in file RTE\Device\GD32F130C8\startup_gd32f1x0.s
   Uses
      At line 67 in file RTE\Device\GD32F130C8\startup_gd32f1x0.s
      At line 205 in file RTE\Device\GD32F130C8\startup_gd32f1x0.s

HardFault_Handler 0000000A

Symbol: HardFault_Handler
   Definitions
      At line 161 in file RTE\Device\GD32F130C8\startup_gd32f1x0.s
   Uses
      At line 49 in file RTE\Device\GD32F130C8\startup_gd32f1x0.s
      At line 162 in file RTE\Device\GD32F130C8\startup_gd32f1x0.s

I2C0_ER_IRQHandler 0000001A

Symbol: I2C0_ER_IRQHandler
   Definitions
      At line 280 in file RTE\Device\GD32F130C8\startup_gd32f1x0.s
   Uses
      At line 96 in file RTE\Device\GD32F130C8\startup_gd32f1x0.s
      At line 231 in file RTE\Device\GD32F130C8\startup_gd32f1x0.s

I2C0_EV_IRQHandler 0000001A

Symbol: I2C0_EV_IRQHandler
   Definitions
      At line 273 in file RTE\Device\GD32F130C8\startup_gd32f1x0.s
   Uses
      At line 87 in file RTE\Device\GD32F130C8\startup_gd32f1x0.s
      At line 224 in file RTE\Device\GD32F130C8\startup_gd32f1x0.s

I2C1_ER_IRQHandler 0000001A

Symbol: I2C1_ER_IRQHandler
   Definitions
      At line 281 in file RTE\Device\GD32F130C8\startup_gd32f1x0.s
   Uses
      At line 98 in file RTE\Device\GD32F130C8\startup_gd32f1x0.s
      At line 232 in file RTE\Device\GD32F130C8\startup_gd32f1x0.s

I2C1_EV_IRQHandler 0000001A

Symbol: I2C1_EV_IRQHandler
   Definitions



ARM Macro Assembler    Page 5 Alphabetic symbol ordering
Relocatable symbols

      At line 274 in file RTE\Device\GD32F130C8\startup_gd32f1x0.s
   Uses
      At line 88 in file RTE\Device\GD32F130C8\startup_gd32f1x0.s
      At line 225 in file RTE\Device\GD32F130C8\startup_gd32f1x0.s

I2C2_ER_IRQHandler 0000001A

Symbol: I2C2_ER_IRQHandler
   Definitions
      At line 283 in file RTE\Device\GD32F130C8\startup_gd32f1x0.s
   Uses
      At line 100 in file RTE\Device\GD32F130C8\startup_gd32f1x0.s
      At line 234 in file RTE\Device\GD32F130C8\startup_gd32f1x0.s

I2C2_EV_IRQHandler 0000001A

Symbol: I2C2_EV_IRQHandler
   Definitions
      At line 282 in file RTE\Device\GD32F130C8\startup_gd32f1x0.s
   Uses
      At line 99 in file RTE\Device\GD32F130C8\startup_gd32f1x0.s
      At line 233 in file RTE\Device\GD32F130C8\startup_gd32f1x0.s

LVD_IRQHandler 0000001A

Symbol: LVD_IRQHandler
   Definitions
      At line 252 in file RTE\Device\GD32F130C8\startup_gd32f1x0.s
   Uses
      At line 65 in file RTE\Device\GD32F130C8\startup_gd32f1x0.s
      At line 203 in file RTE\Device\GD32F130C8\startup_gd32f1x0.s

MemManage_Handler 0000000C

Symbol: MemManage_Handler
   Definitions
      At line 166 in file RTE\Device\GD32F130C8\startup_gd32f1x0.s
   Uses
      At line 50 in file RTE\Device\GD32F130C8\startup_gd32f1x0.s
      At line 167 in file RTE\Device\GD32F130C8\startup_gd32f1x0.s

NMI_Handler 00000008

Symbol: NMI_Handler
   Definitions
      At line 156 in file RTE\Device\GD32F130C8\startup_gd32f1x0.s
   Uses
      At line 48 in file RTE\Device\GD32F130C8\startup_gd32f1x0.s
      At line 157 in file RTE\Device\GD32F130C8\startup_gd32f1x0.s

PendSV_Handler 00000016

Symbol: PendSV_Handler
   Definitions
      At line 190 in file RTE\Device\GD32F130C8\startup_gd32f1x0.s
   Uses
      At line 60 in file RTE\Device\GD32F130C8\startup_gd32f1x0.s
      At line 191 in file RTE\Device\GD32F130C8\startup_gd32f1x0.s




ARM Macro Assembler    Page 6 Alphabetic symbol ordering
Relocatable symbols

RCU_IRQHandler 0000001A

Symbol: RCU_IRQHandler
   Definitions
      At line 255 in file RTE\Device\GD32F130C8\startup_gd32f1x0.s
   Uses
      At line 68 in file RTE\Device\GD32F130C8\startup_gd32f1x0.s
      At line 206 in file RTE\Device\GD32F130C8\startup_gd32f1x0.s

RTC_IRQHandler 0000001A

Symbol: RTC_IRQHandler
   Definitions
      At line 253 in file RTE\Device\GD32F130C8\startup_gd32f1x0.s
   Uses
      At line 66 in file RTE\Device\GD32F130C8\startup_gd32f1x0.s
      At line 204 in file RTE\Device\GD32F130C8\startup_gd32f1x0.s

Reset_Handler 00000000

Symbol: Reset_Handler
   Definitions
      At line 145 in file RTE\Device\GD32F130C8\startup_gd32f1x0.s
   Uses
      At line 47 in file RTE\Device\GD32F130C8\startup_gd32f1x0.s
      At line 146 in file RTE\Device\GD32F130C8\startup_gd32f1x0.s

SLCD_IRQHandler 0000001A

Symbol: SLCD_IRQHandler
   Definitions
      At line 291 in file RTE\Device\GD32F130C8\startup_gd32f1x0.s
   Uses
      At line 111 in file RTE\Device\GD32F130C8\startup_gd32f1x0.s
      At line 242 in file RTE\Device\GD32F130C8\startup_gd32f1x0.s

SPI0_IRQHandler 0000001A

Symbol: SPI0_IRQHandler
   Definitions
      At line 275 in file RTE\Device\GD32F130C8\startup_gd32f1x0.s
   Uses
      At line 89 in file RTE\Device\GD32F130C8\startup_gd32f1x0.s
      At line 226 in file RTE\Device\GD32F130C8\startup_gd32f1x0.s

SPI1_IRQHandler 0000001A

Symbol: SPI1_IRQHandler
   Definitions
      At line 276 in file RTE\Device\GD32F130C8\startup_gd32f1x0.s
   Uses
      At line 90 in file RTE\Device\GD32F130C8\startup_gd32f1x0.s
      At line 227 in file RTE\Device\GD32F130C8\startup_gd32f1x0.s

SPI2_IRQHandler 0000001A

Symbol: SPI2_IRQHandler
   Definitions
      At line 293 in file RTE\Device\GD32F130C8\startup_gd32f1x0.s



ARM Macro Assembler    Page 7 Alphabetic symbol ordering
Relocatable symbols

   Uses
      At line 115 in file RTE\Device\GD32F130C8\startup_gd32f1x0.s
      At line 244 in file RTE\Device\GD32F130C8\startup_gd32f1x0.s

SVC_Handler 00000012

Symbol: SVC_Handler
   Definitions
      At line 180 in file RTE\Device\GD32F130C8\startup_gd32f1x0.s
   Uses
      At line 57 in file RTE\Device\GD32F130C8\startup_gd32f1x0.s
      At line 181 in file RTE\Device\GD32F130C8\startup_gd32f1x0.s

SysTick_Handler 00000018

Symbol: SysTick_Handler
   Definitions
      At line 195 in file RTE\Device\GD32F130C8\startup_gd32f1x0.s
   Uses
      At line 61 in file RTE\Device\GD32F130C8\startup_gd32f1x0.s
      At line 196 in file RTE\Device\GD32F130C8\startup_gd32f1x0.s

TIMER0_BRK_UP_TRG_COM_IRQHandler 0000001A

Symbol: TIMER0_BRK_UP_TRG_COM_IRQHandler
   Definitions
      At line 264 in file RTE\Device\GD32F130C8\startup_gd32f1x0.s
   Uses
      At line 77 in file RTE\Device\GD32F130C8\startup_gd32f1x0.s
      At line 215 in file RTE\Device\GD32F130C8\startup_gd32f1x0.s

TIMER0_Channel_IRQHandler 0000001A

Symbol: TIMER0_Channel_IRQHandler
   Definitions
      At line 265 in file RTE\Device\GD32F130C8\startup_gd32f1x0.s
   Uses
      At line 78 in file RTE\Device\GD32F130C8\startup_gd32f1x0.s
      At line 216 in file RTE\Device\GD32F130C8\startup_gd32f1x0.s

TIMER13_IRQHandler 0000001A

Symbol: TIMER13_IRQHandler
   Definitions
      At line 269 in file RTE\Device\GD32F130C8\startup_gd32f1x0.s
   Uses
      At line 83 in file RTE\Device\GD32F130C8\startup_gd32f1x0.s
      At line 220 in file RTE\Device\GD32F130C8\startup_gd32f1x0.s

TIMER14_IRQHandler 0000001A

Symbol: TIMER14_IRQHandler
   Definitions
      At line 270 in file RTE\Device\GD32F130C8\startup_gd32f1x0.s
   Uses
      At line 84 in file RTE\Device\GD32F130C8\startup_gd32f1x0.s
      At line 221 in file RTE\Device\GD32F130C8\startup_gd32f1x0.s

TIMER15_IRQHandler 0000001A



ARM Macro Assembler    Page 8 Alphabetic symbol ordering
Relocatable symbols


Symbol: TIMER15_IRQHandler
   Definitions
      At line 271 in file RTE\Device\GD32F130C8\startup_gd32f1x0.s
   Uses
      At line 85 in file RTE\Device\GD32F130C8\startup_gd32f1x0.s
      At line 222 in file RTE\Device\GD32F130C8\startup_gd32f1x0.s

TIMER16_IRQHandler 0000001A

Symbol: TIMER16_IRQHandler
   Definitions
      At line 272 in file RTE\Device\GD32F130C8\startup_gd32f1x0.s
   Uses
      At line 86 in file RTE\Device\GD32F130C8\startup_gd32f1x0.s
      At line 223 in file RTE\Device\GD32F130C8\startup_gd32f1x0.s

TIMER1_IRQHandler 0000001A

Symbol: TIMER1_IRQHandler
   Definitions
      At line 266 in file RTE\Device\GD32F130C8\startup_gd32f1x0.s
   Uses
      At line 79 in file RTE\Device\GD32F130C8\startup_gd32f1x0.s
      At line 217 in file RTE\Device\GD32F130C8\startup_gd32f1x0.s

TIMER2_IRQHandler 0000001A

Symbol: TIMER2_IRQHandler
   Definitions
      At line 267 in file RTE\Device\GD32F130C8\startup_gd32f1x0.s
   Uses
      At line 80 in file RTE\Device\GD32F130C8\startup_gd32f1x0.s
      At line 218 in file RTE\Device\GD32F130C8\startup_gd32f1x0.s

TIMER5_DAC_IRQHandler 0000001A

Symbol: TIMER5_DAC_IRQHandler
   Definitions
      At line 268 in file RTE\Device\GD32F130C8\startup_gd32f1x0.s
   Uses
      At line 81 in file RTE\Device\GD32F130C8\startup_gd32f1x0.s
      At line 219 in file RTE\Device\GD32F130C8\startup_gd32f1x0.s

TSI_IRQHandler 0000001A

Symbol: TSI_IRQHandler
   Definitions
      At line 259 in file RTE\Device\GD32F130C8\startup_gd32f1x0.s
   Uses
      At line 72 in file RTE\Device\GD32F130C8\startup_gd32f1x0.s
      At line 210 in file RTE\Device\GD32F130C8\startup_gd32f1x0.s

USART0_IRQHandler 0000001A

Symbol: USART0_IRQHandler
   Definitions
      At line 277 in file RTE\Device\GD32F130C8\startup_gd32f1x0.s
   Uses



ARM Macro Assembler    Page 9 Alphabetic symbol ordering
Relocatable symbols

      At line 91 in file RTE\Device\GD32F130C8\startup_gd32f1x0.s
      At line 228 in file RTE\Device\GD32F130C8\startup_gd32f1x0.s

USART1_IRQHandler 0000001A

Symbol: USART1_IRQHandler
   Definitions
      At line 278 in file RTE\Device\GD32F130C8\startup_gd32f1x0.s
   Uses
      At line 92 in file RTE\Device\GD32F130C8\startup_gd32f1x0.s
      At line 229 in file RTE\Device\GD32F130C8\startup_gd32f1x0.s

USBDWakeUp_IRQHandler 0000001A

Symbol: USBDWakeUp_IRQHandler
   Definitions
      At line 286 in file RTE\Device\GD32F130C8\startup_gd32f1x0.s
   Uses
      At line 106 in file RTE\Device\GD32F130C8\startup_gd32f1x0.s
      At line 237 in file RTE\Device\GD32F130C8\startup_gd32f1x0.s

USBD_HP_IRQHandler 0000001A

Symbol: USBD_HP_IRQHandler
   Definitions
      At line 285 in file RTE\Device\GD32F130C8\startup_gd32f1x0.s
   Uses
      At line 102 in file RTE\Device\GD32F130C8\startup_gd32f1x0.s
      At line 236 in file RTE\Device\GD32F130C8\startup_gd32f1x0.s

USBD_LP_IRQHandler 0000001A

Symbol: USBD_LP_IRQHandler
   Definitions
      At line 284 in file RTE\Device\GD32F130C8\startup_gd32f1x0.s
   Uses
      At line 101 in file RTE\Device\GD32F130C8\startup_gd32f1x0.s
      At line 235 in file RTE\Device\GD32F130C8\startup_gd32f1x0.s

UsageFault_Handler 00000010

Symbol: UsageFault_Handler
   Definitions
      At line 176 in file RTE\Device\GD32F130C8\startup_gd32f1x0.s
   Uses
      At line 52 in file RTE\Device\GD32F130C8\startup_gd32f1x0.s
      At line 177 in file RTE\Device\GD32F130C8\startup_gd32f1x0.s

WWDGT_IRQHandler 0000001A

Symbol: WWDGT_IRQHandler
   Definitions
      At line 251 in file RTE\Device\GD32F130C8\startup_gd32f1x0.s
   Uses
      At line 64 in file RTE\Device\GD32F130C8\startup_gd32f1x0.s
      At line 202 in file RTE\Device\GD32F130C8\startup_gd32f1x0.s

__user_initial_stackheap 0000001C




ARM Macro Assembler    Page 10 Alphabetic symbol ordering
Relocatable symbols

Symbol: __user_initial_stackheap
   Definitions
      At line 316 in file RTE\Device\GD32F130C8\startup_gd32f1x0.s
   Uses
      At line 314 in file RTE\Device\GD32F130C8\startup_gd32f1x0.s
Comment: __user_initial_stackheap used once
60 symbols



ARM Macro Assembler    Page 1 Alphabetic symbol ordering
Absolute symbols

Heap_Size 00000400

Symbol: Heap_Size
   Definitions
      At line 30 in file RTE\Device\GD32F130C8\startup_gd32f1x0.s
   Uses
      At line 34 in file RTE\Device\GD32F130C8\startup_gd32f1x0.s
      At line 319 in file RTE\Device\GD32F130C8\startup_gd32f1x0.s

Stack_Size 00000400

Symbol: Stack_Size
   Definitions
      At line 19 in file RTE\Device\GD32F130C8\startup_gd32f1x0.s
   Uses
      At line 22 in file RTE\Device\GD32F130C8\startup_gd32f1x0.s
      At line 318 in file RTE\Device\GD32F130C8\startup_gd32f1x0.s

__Vectors_Size 00000168

Symbol: __Vectors_Size
   Definitions
      At line 140 in file RTE\Device\GD32F130C8\startup_gd32f1x0.s
   Uses
      At line 44 in file RTE\Device\GD32F130C8\startup_gd32f1x0.s
Comment: __Vectors_Size used once
3 symbols



ARM Macro Assembler    Page 1 Alphabetic symbol ordering
External symbols

SystemInit 00000000

Symbol: SystemInit
   Definitions
      At line 147 in file RTE\Device\GD32F130C8\startup_gd32f1x0.s
   Uses
      At line 149 in file RTE\Device\GD32F130C8\startup_gd32f1x0.s
Comment: SystemInit used once
__main 00000000

Symbol: __main
   Definitions
      At line 148 in file RTE\Device\GD32F130C8\startup_gd32f1x0.s
   Uses
      At line 151 in file RTE\Device\GD32F130C8\startup_gd32f1x0.s
Comment: __main used once
__use_two_region_memory 00000000

Symbol: __use_two_region_memory
   Definitions
      At line 313 in file RTE\Device\GD32F130C8\startup_gd32f1x0.s
   Uses
      None
Comment: __use_two_region_memory unused
3 symbols
416 symbols in table
